target datalayout = "e-m:e-p270:32:32-p271:32:32-p272:64:64-i64:64-i128:128-f80:128-n8:16:32:64-S128"
target triple = "x86_64-pc-linux-gnu"

%"class.std::_Sp_counted_base" = type { ptr, i32, i32 }
%"class.std::_Sp_counted_ptr.546" = type { %"class.std::_Sp_counted_base", ptr }

; Function Attrs: mustprogress nounwind uwtable
define linkonce_odr void @_ZN32pxrInternal_v0_24__pxrReserved__19HdSampledDataSourceD2Ev(ptr noundef nonnull align 8 dereferenceable(8) %0) unnamed_addr #4 comdat align 2 {
  %2 = alloca ptr, align 8
  store ptr %0, ptr %2, align 8
  %3 = load ptr, ptr %2, align 8
  call void @_ZN32pxrInternal_v0_24__pxrReserved__16HdDataSourceBaseD2Ev(ptr noundef nonnull align 8 dereferenceable(8) %3) #5
  ret void
}

; Function Attrs: mustprogress nounwind uwtable
define linkonce_odr void @_ZN32pxrInternal_v0_24__pxrReserved__24HdTypedSampledDataSourceINS_7VtArrayItEEED2Ev(ptr noundef nonnull align 8 dereferenceable(8) %0) unnamed_addr #4 comdat align 2 {
  %2 = alloca ptr, align 8
  store ptr %0, ptr %2, align 8
  %3 = load ptr, ptr %2, align 8
  call void @_ZN32pxrInternal_v0_24__pxrReserved__19HdSampledDataSourceD2Ev(ptr noundef nonnull align 8 dereferenceable(8) %3) #5
  ret void
}

; Function Attrs: mustprogress nounwind uwtable
define internal void @_ZN32pxrInternal_v0_24__pxrReserved__12_GLOBAL__N_121_TypedValueDataSourceINS_7VtArrayItEEED2Ev(ptr noundef nonnull align 8 dereferenceable(72) %0) unnamed_addr #4 align 2 {
  %2 = alloca ptr, align 8
  store ptr %0, ptr %2, align 8
  %3 = load ptr, ptr %2, align 8
  %4 = getelementptr inbounds i8, ptr %3, i64 8
  call void @_ZN32pxrInternal_v0_24__pxrReserved__12_GLOBAL__N_115_VelocityHelperD2Ev(ptr noundef nonnull align 8 dereferenceable(64) %4) #5
  call void @_ZN32pxrInternal_v0_24__pxrReserved__24HdTypedSampledDataSourceINS_7VtArrayItEEED2Ev(ptr noundef nonnull align 8 dereferenceable(8) %3) #5
  ret void
}

; Function Attrs: mustprogress nounwind uwtable
define internal void @_ZNSt15_Sp_counted_ptrIPN32pxrInternal_v0_24__pxrReserved__12_GLOBAL__N_121_TypedValueDataSourceINS0_7VtArrayItEEEELN9__gnu_cxx12_Lock_policyE2EE10_M_disposeEv(ptr noundef nonnull align 8 dereferenceable(24) %0) unnamed_addr #4 align 2 {
  %2 = alloca ptr, align 8
  store ptr %0, ptr %2, align 8
  %3 = load ptr, ptr %2, align 8
  %4 = getelementptr inbounds nuw %"class.std::_Sp_counted_ptr.546", ptr %3, i32 0, i32 1
  %5 = load ptr, ptr %4, align 8
  %6 = icmp eq ptr %5, null
  br i1 %6, label %8, label %7

7:                                                ; preds = %1
  call void @_ZN32pxrInternal_v0_24__pxrReserved__12_GLOBAL__N_121_TypedValueDataSourceINS_7VtArrayItEEED2Ev(ptr noundef nonnull align 8 dereferenceable(72) %5) #5
  call void @_ZdlPvm(ptr noundef %5, i64 noundef 72) #19
  br label %8

8:                                                ; preds = %7, %1
  ret void
}